target datalayout = "e-m:e-p270:32:32-p271:32:32-p272:64:64-i64:64-i128:128-f80:128-n8:16:32:64-S128"
target triple = "x86_64-unknown-linux-gnu"

%"class.node::quic::CID" = type { %"class.node::MemoryRetainer", %struct.ngtcp2_cid, ptr }
%"class.node::MemoryRetainer" = type { ptr }
%struct.ngtcp2_cid = type { i64, [20 x i8] }

; Function Attrs: mustprogress nounwind uwtable
define linkonce_odr dso_local void @_ZN4node14MemoryRetainerC2Ev(ptr noundef nonnull align 8 dereferenceable(8) %this) unnamed_addr #4 comdat align 2 {
entry:
  %this.addr = alloca ptr, align 8
  store ptr %this, ptr %this.addr, align 8
  %this1 = load ptr, ptr %this.addr, align 8
  store ptr getelementptr inbounds ({ [10 x ptr] }, ptr @_ZTVN4node14MemoryRetainerE, i32 0, i32 0, i32 2), ptr %this1, align 8
  ret void
}

; Function Attrs: mustprogress nounwind uwtable
define dso_local void @_ZN4node4quic3CIDC2Ev(ptr noundef nonnull align 8 dereferenceable(48) %this) unnamed_addr #4 align 2 {
entry:
  %this.addr = alloca ptr, align 8
  store ptr %this, ptr %this.addr, align 8
  %this1 = load ptr, ptr %this.addr, align 8
  call void @_ZN4node14MemoryRetainerC2Ev(ptr noundef nonnull align 8 dereferenceable(8) %this1) #3
  store ptr getelementptr inbounds ({ [10 x ptr] }, ptr @_ZTVN4node4quic3CIDE, i32 0, i32 0, i32 2), ptr %this1, align 8
  %ptr_ = getelementptr inbounds %"class.node::quic::CID", ptr %this1, i32 0, i32 2
  %cid_2 = getelementptr inbounds %"class.node::quic::CID", ptr %this1, i32 0, i32 1
  store ptr %cid_2, ptr %ptr_, align 8
  %cid_3 = getelementptr inbounds %"class.node::quic::CID", ptr %this1, i32 0, i32 1
  %datalen = getelementptr inbounds %struct.ngtcp2_cid, ptr %cid_3, i32 0, i32 0
  store i64 0, ptr %datalen, align 8
  ret void
}

; Function Attrs: mustprogress nounwind uwtable
define dso_local void @_ZN4node4quic3CIDC2EPKhm(ptr noundef nonnull align 8 dereferenceable(48) %this, ptr noundef %data, i64 noundef %len) unnamed_addr #4 align 2 {
entry:
  %this.addr = alloca ptr, align 8
  %data.addr = alloca ptr, align 8
  %len.addr = alloca i64, align 8
  store ptr %this, ptr %this.addr, align 8
  store ptr %data, ptr %data.addr, align 8
  store i64 %len, ptr %len.addr, align 8
  %this1 = load ptr, ptr %this.addr, align 8
  call void @_ZN4node4quic3CIDC2Ev(ptr noundef nonnull align 8 dereferenceable(48) %this1)
  %cid_ = getelementptr inbounds %"class.node::quic::CID", ptr %this1, i32 0, i32 1
  %0 = load ptr, ptr %data.addr, align 8
  %1 = load i64, ptr %len.addr, align 8
  call void @ngtcp2_cid_init(ptr noundef %cid_, ptr noundef %0, i64 noundef %1)
  ret void
}

; Function Attrs: mustprogress nounwind uwtable
define dso_local void @_ZN4node4quic3CIDC2ERK10ngtcp2_cid(ptr noundef nonnull align 8 dereferenceable(48) %this, ptr noundef nonnull align 8 dereferenceable(32) %cid) unnamed_addr #4 align 2 {
entry:
  %this.addr = alloca ptr, align 8
  %cid.addr = alloca ptr, align 8
  store ptr %this, ptr %this.addr, align 8
  store ptr %cid, ptr %cid.addr, align 8
  %this1 = load ptr, ptr %this.addr, align 8
  %0 = load ptr, ptr %cid.addr, align 8
  %data = getelementptr inbounds %struct.ngtcp2_cid, ptr %0, i32 0, i32 1
  %arraydecay = getelementptr inbounds [20 x i8], ptr %data, i64 0, i64 0
  %1 = load ptr, ptr %cid.addr, align 8
  %datalen = getelementptr inbounds %struct.ngtcp2_cid, ptr %1, i32 0, i32 0
  %2 = load i64, ptr %datalen, align 8
  call void @_ZN4node4quic3CIDC2EPKhm(ptr noundef nonnull align 8 dereferenceable(48) %this1, ptr noundef %arraydecay, i64 noundef %2)
  ret void
}