; Function Attrs: mustprogress nounwind uwtable
define dso_local void @_ZN4node4quic3CIDC2ERK10ngtcp2_cid(ptr noundef nonnull align 8 dereferenceable(48) %this, ptr noundef nonnull align 8 dereferenceable(32) %cid) unnamed_addr #4 align 2 {
entry:
  %data = getelementptr inbounds i8, ptr %cid, i64 8
  %0 = load i64, ptr %cid, align 8
  store ptr getelementptr inbounds ({ [10 x ptr] }, ptr @_ZTVN4node4quic3CIDE, i64 0, i32 0, i64 2), ptr %this, align 8
  %ptr_.i.i = getelementptr inbounds i8, ptr %this, i64 40
  %cid_2.i.i = getelementptr inbounds i8, ptr %this, i64 8
  store ptr %cid_2.i.i, ptr %ptr_.i.i, align 8
  store i64 0, ptr %cid_2.i.i, align 8
  tail call void @ngtcp2_cid_init(ptr noundef nonnull %cid_2.i.i, ptr noundef nonnull %data, i64 noundef %0) #12
  ret void
}